target datalayout = "e-m:e-p270:32:32-p271:32:32-p272:64:64-i64:64-i128:128-f80:128-n8:16:32:64-S128"
target triple = "x86_64-pc-linux-gnu"

%"class.std::__cxx11::basic_string" = type { %"struct.std::__cxx11::basic_string<char>::_Alloc_hider", i64, %union.anon }
%"struct.std::__cxx11::basic_string<char>::_Alloc_hider" = type { ptr }
%union.anon = type { i64, [8 x i8] }
%"class.std::allocator" = type { i8 }

@_ZTISt9exception = external constant ptr
@_ZTIN6casadi15CasadiExceptionE = linkonce_odr constant { ptr, ptr, ptr } { ptr getelementptr inbounds (ptr, ptr @_ZTVN10__cxxabiv120__si_class_type_infoE, i64 2), ptr @_ZTSN6casadi15CasadiExceptionE, ptr @_ZTISt9exception }, comdat, align 8
@.str.95 = private unnamed_addr constant [3 x i8] c":\0A\00", align 1
@.str.393 = private unnamed_addr constant [5 x i8] c" at \00", align 1
@.str.397 = private unnamed_addr constant [42 x i8] c"Error in MX::ad_reverse for node of type \00", align 1
@.str.398 = private unnamed_addr constant [115 x i8] c"generated/home/dtcxzyw/WorkSpace/Projects/compilers/llvm-opt-benchmark/bench/casadi/casadi/casadi/core/mx.cpp:2310\00", align 1

; Function Attrs: mustprogress uwtable
define linkonce_odr void @_ZStplIcSt11char_traitsIcESaIcEENSt7__cxx1112basic_stringIT_T0_T1_EEOS8_PKS5_(ptr dead_on_unwind noalias writable sret(%"class.std::__cxx11::basic_string") align 8 %0, ptr noundef nonnull align 8 dereferenceable(32) %1, ptr noundef %2) #4 comdat {
  %4 = alloca ptr, align 8
  %5 = alloca ptr, align 8
  %6 = alloca ptr, align 8
  store ptr %0, ptr %4, align 8
  store ptr %1, ptr %5, align 8
  store ptr %2, ptr %6, align 8
  %7 = load ptr, ptr %5, align 8
  %8 = load ptr, ptr %6, align 8
  %9 = call noundef nonnull align 8 dereferenceable(32) ptr @_ZNSt7__cxx1112basic_stringIcSt11char_traitsIcESaIcEE6appendEPKc(ptr noundef nonnull align 8 dereferenceable(32) %7, ptr noundef %8)
  call void @_ZNSt7__cxx1112basic_stringIcSt11char_traitsIcESaIcEEC1EOS4_(ptr noundef nonnull align 8 dereferenceable(32) %0, ptr noundef nonnull align 8 dereferenceable(32) %9) #3
  ret void
}

; Function Attrs: mustprogress uwtable
define linkonce_odr void @_ZStplIcSt11char_traitsIcESaIcEENSt7__cxx1112basic_stringIT_T0_T1_EEPKS5_OS8_(ptr dead_on_unwind noalias writable sret(%"class.std::__cxx11::basic_string") align 8 %0, ptr noundef %1, ptr noundef nonnull align 8 dereferenceable(32) %2) #4 comdat {
  %4 = alloca ptr, align 8
  %5 = alloca ptr, align 8
  %6 = alloca ptr, align 8
  store ptr %0, ptr %4, align 8
  store ptr %1, ptr %5, align 8
  store ptr %2, ptr %6, align 8
  %7 = load ptr, ptr %6, align 8
  %8 = load ptr, ptr %5, align 8
  %9 = call noundef nonnull align 8 dereferenceable(32) ptr @_ZNSt7__cxx1112basic_stringIcSt11char_traitsIcESaIcEE6insertEmPKc(ptr noundef nonnull align 8 dereferenceable(32) %7, i64 noundef 0, ptr noundef %8)
  call void @_ZNSt7__cxx1112basic_stringIcSt11char_traitsIcESaIcEEC1EOS4_(ptr noundef nonnull align 8 dereferenceable(32) %0, ptr noundef nonnull align 8 dereferenceable(32) %9) #3
  ret void
}

; Function Attrs: mustprogress uwtable
define noundef ptr @_ZNK6casadi2MXptEv(ptr noundef nonnull align 8 dereferenceable(8) %0) #4 align 2 {
  %2 = alloca ptr, align 8
  store ptr %0, ptr %2, align 8
  %3 = load ptr, ptr %2, align 8
  %4 = call noundef ptr @_ZNK6casadi12SharedObjectptEv(ptr noundef nonnull align 8 dereferenceable(8) %3)
  ret ptr %4
}

; Function Attrs: mustprogress uwtable
define void @_ZNK6casadi2MX10ad_reverseERKSt6vectorIS1_IS0_SaIS0_EESaIS3_EERS5_(ptr noundef nonnull align 8 dereferenceable(8) %0, ptr noundef nonnull align 8 dereferenceable(24) %1, ptr noundef nonnull align 8 dereferenceable(24) %2) #4 align 2 personality ptr @__gxx_personality_v0 {
  %4 = alloca ptr, align 8
  %5 = alloca ptr, align 8
  %6 = alloca ptr, align 8
  %7 = alloca ptr, align 8
  %8 = alloca i32, align 4
  %9 = alloca ptr, align 8
  %10 = alloca %"class.std::__cxx11::basic_string", align 8
  %11 = alloca %"class.std::__cxx11::basic_string", align 8
  %12 = alloca %"class.std::__cxx11::basic_string", align 8
  %13 = alloca %"class.std::__cxx11::basic_string", align 8
  %14 = alloca %"class.std::__cxx11::basic_string", align 8
  %15 = alloca %"class.std::__cxx11::basic_string", align 8
  %16 = alloca %"class.std::__cxx11::basic_string", align 8
  %17 = alloca %"class.std::__cxx11::basic_string", align 8
  %18 = alloca %"class.std::allocator", align 1
  %19 = alloca %"class.std::__cxx11::basic_string", align 8
  %20 = alloca %"class.std::allocator", align 1
  %21 = alloca i1, align 1
  store ptr %0, ptr %4, align 8
  store ptr %1, ptr %5, align 8
  store ptr %2, ptr %6, align 8
  %22 = load ptr, ptr %4, align 8
  %23 = invoke noundef ptr @_ZNK6casadi2MXptEv(ptr noundef nonnull align 8 dereferenceable(8) %22)
          to label %24 unwind label %31

24:                                               ; preds = %3
  %25 = load ptr, ptr %5, align 8
  %26 = load ptr, ptr %6, align 8
  %27 = load ptr, ptr %23, align 8
  %28 = getelementptr inbounds ptr, ptr %27, i64 22
  %29 = load ptr, ptr %28, align 8
  invoke void %29(ptr noundef nonnull align 8 dereferenceable(64) %23, ptr noundef nonnull align 8 dereferenceable(24) %25, ptr noundef nonnull align 8 dereferenceable(24) %26)
          to label %30 unwind label %31

30:                                               ; preds = %24
  br label %111

31:                                               ; preds = %24, %3
  %32 = landingpad { ptr, i32 }
          catch ptr @_ZTISt9exception
  %33 = extractvalue { ptr, i32 } %32, 0
  store ptr %33, ptr %7, align 8
  %34 = extractvalue { ptr, i32 } %32, 1
  store i32 %34, ptr %8, align 4
  br label %35

35:                                               ; preds = %31
  %36 = load i32, ptr %8, align 4
  %37 = call i32 @llvm.eh.typeid.for(ptr @_ZTISt9exception) #3
  %38 = icmp eq i32 %36, %37
  br i1 %38, label %39, label %112

39:                                               ; preds = %35
  %40 = load ptr, ptr %7, align 8
  %41 = call ptr @__cxa_begin_catch(ptr %40) #3
  store ptr %41, ptr %9, align 8
  store i1 true, ptr %21, align 1
  %42 = call ptr @__cxa_allocate_exception(i64 40) #3
  invoke void @_ZNK6casadi12SharedObject10class_nameB5cxx11Ev(ptr dead_on_unwind writable sret(%"class.std::__cxx11::basic_string") align 8 %15, ptr noundef nonnull align 8 dereferenceable(8) %22)
          to label %43 unwind label %58

43:                                               ; preds = %39
  invoke void @_ZStplIcSt11char_traitsIcESaIcEENSt7__cxx1112basic_stringIT_T0_T1_EEPKS5_OS8_(ptr dead_on_unwind writable sret(%"class.std::__cxx11::basic_string") align 8 %14, ptr noundef @.str.397, ptr noundef nonnull align 8 dereferenceable(32) %15)
          to label %44 unwind label %62

44:                                               ; preds = %43
  invoke void @_ZStplIcSt11char_traitsIcESaIcEENSt7__cxx1112basic_stringIT_T0_T1_EEOS8_PKS5_(ptr dead_on_unwind writable sret(%"class.std::__cxx11::basic_string") align 8 %13, ptr noundef nonnull align 8 dereferenceable(32) %14, ptr noundef @.str.393)
          to label %45 unwind label %66

45:                                               ; preds = %44
  call void @_ZNSaIcEC1Ev(ptr noundef nonnull align 1 dereferenceable(1) %18) #3
  invoke void @_ZNSt7__cxx1112basic_stringIcSt11char_traitsIcESaIcEEC2IS3_EEPKcRKS3_(ptr noundef nonnull align 8 dereferenceable(32) %17, ptr noundef @.str.398, ptr noundef nonnull align 1 dereferenceable(1) %18)
          to label %46 unwind label %70

46:                                               ; preds = %45
  invoke void @_ZN6casadi9trim_pathERKNSt7__cxx1112basic_stringIcSt11char_traitsIcESaIcEEE(ptr dead_on_unwind writable sret(%"class.std::__cxx11::basic_string") align 8 %16, ptr noundef nonnull align 8 dereferenceable(32) %17)
          to label %47 unwind label %74

47:                                               ; preds = %46
  invoke void @_ZStplIcSt11char_traitsIcESaIcEENSt7__cxx1112basic_stringIT_T0_T1_EEOS8_S9_(ptr dead_on_unwind writable sret(%"class.std::__cxx11::basic_string") align 8 %12, ptr noundef nonnull align 8 dereferenceable(32) %13, ptr noundef nonnull align 8 dereferenceable(32) %16)
          to label %48 unwind label %78

48:                                               ; preds = %47
  invoke void @_ZStplIcSt11char_traitsIcESaIcEENSt7__cxx1112basic_stringIT_T0_T1_EEOS8_PKS5_(ptr dead_on_unwind writable sret(%"class.std::__cxx11::basic_string") align 8 %11, ptr noundef nonnull align 8 dereferenceable(32) %12, ptr noundef @.str.95)
          to label %49 unwind label %82

49:                                               ; preds = %48
  %50 = load ptr, ptr %9, align 8
  %51 = load ptr, ptr %50, align 8
  %52 = getelementptr inbounds ptr, ptr %51, i64 2
  %53 = load ptr, ptr %52, align 8
  %54 = call noundef ptr %53(ptr noundef nonnull align 8 dereferenceable(8) %50) #3
  call void @_ZNSaIcEC1Ev(ptr noundef nonnull align 1 dereferenceable(1) %20) #3
  invoke void @_ZNSt7__cxx1112basic_stringIcSt11char_traitsIcESaIcEEC2IS3_EEPKcRKS3_(ptr noundef nonnull align 8 dereferenceable(32) %19, ptr noundef %54, ptr noundef nonnull align 1 dereferenceable(1) %20)
          to label %55 unwind label %86

55:                                               ; preds = %49
  invoke void @_ZStplIcSt11char_traitsIcESaIcEENSt7__cxx1112basic_stringIT_T0_T1_EEOS8_S9_(ptr dead_on_unwind writable sret(%"class.std::__cxx11::basic_string") align 8 %10, ptr noundef nonnull align 8 dereferenceable(32) %11, ptr noundef nonnull align 8 dereferenceable(32) %19)
          to label %56 unwind label %90

56:                                               ; preds = %55
  invoke void @_ZN6casadi15CasadiExceptionC2ERKNSt7__cxx1112basic_stringIcSt11char_traitsIcESaIcEEE(ptr noundef nonnull align 8 dereferenceable(40) %42, ptr noundef nonnull align 8 dereferenceable(32) %10)
          to label %57 unwind label %94

57:                                               ; preds = %56
  store i1 false, ptr %21, align 1
  invoke void @__cxa_throw(ptr %42, ptr @_ZTIN6casadi15CasadiExceptionE, ptr @_ZN6casadi15CasadiExceptionD2Ev) #18
          to label %120 unwind label %94

58:                                               ; preds = %39
  %59 = landingpad { ptr, i32 }
          cleanup
  %60 = extractvalue { ptr, i32 } %59, 0
  store ptr %60, ptr %7, align 8
  %61 = extractvalue { ptr, i32 } %59, 1
  store i32 %61, ptr %8, align 4
  br label %106

62:                                               ; preds = %43
  %63 = landingpad { ptr, i32 }
          cleanup
  %64 = extractvalue { ptr, i32 } %63, 0
  store ptr %64, ptr %7, align 8
  %65 = extractvalue { ptr, i32 } %63, 1
  store i32 %65, ptr %8, align 4
  br label %105

66:                                               ; preds = %44
  %67 = landingpad { ptr, i32 }
          cleanup
  %68 = extractvalue { ptr, i32 } %67, 0
  store ptr %68, ptr %7, align 8
  %69 = extractvalue { ptr, i32 } %67, 1
  store i32 %69, ptr %8, align 4
  br label %104

70:                                               ; preds = %45
  %71 = landingpad { ptr, i32 }
          cleanup
  %72 = extractvalue { ptr, i32 } %71, 0
  store ptr %72, ptr %7, align 8
  %73 = extractvalue { ptr, i32 } %71, 1
  store i32 %73, ptr %8, align 4
  br label %103

74:                                               ; preds = %46
  %75 = landingpad { ptr, i32 }
          cleanup
  %76 = extractvalue { ptr, i32 } %75, 0
  store ptr %76, ptr %7, align 8
  %77 = extractvalue { ptr, i32 } %75, 1
  store i32 %77, ptr %8, align 4
  br label %102

78:                                               ; preds = %47
  %79 = landingpad { ptr, i32 }
          cleanup
  %80 = extractvalue { ptr, i32 } %79, 0
  store ptr %80, ptr %7, align 8
  %81 = extractvalue { ptr, i32 } %79, 1
  store i32 %81, ptr %8, align 4
  br label %101

82:                                               ; preds = %48
  %83 = landingpad { ptr, i32 }
          cleanup
  %84 = extractvalue { ptr, i32 } %83, 0
  store ptr %84, ptr %7, align 8
  %85 = extractvalue { ptr, i32 } %83, 1
  store i32 %85, ptr %8, align 4
  br label %100

86:                                               ; preds = %49
  %87 = landingpad { ptr, i32 }
          cleanup
  %88 = extractvalue { ptr, i32 } %87, 0
  store ptr %88, ptr %7, align 8
  %89 = extractvalue { ptr, i32 } %87, 1
  store i32 %89, ptr %8, align 4
  br label %99

90:                                               ; preds = %55
  %91 = landingpad { ptr, i32 }
          cleanup
  %92 = extractvalue { ptr, i32 } %91, 0
  store ptr %92, ptr %7, align 8
  %93 = extractvalue { ptr, i32 } %91, 1
  store i32 %93, ptr %8, align 4
  br label %98

94:                                               ; preds = %57, %56
  %95 = landingpad { ptr, i32 }
          cleanup
  %96 = extractvalue { ptr, i32 } %95, 0
  store ptr %96, ptr %7, align 8
  %97 = extractvalue { ptr, i32 } %95, 1
  store i32 %97, ptr %8, align 4
  call void @_ZNSt7__cxx1112basic_stringIcSt11char_traitsIcESaIcEED1Ev(ptr noundef nonnull align 8 dereferenceable(32) %10) #3
  br label %98

98:                                               ; preds = %94, %90
  call void @_ZNSt7__cxx1112basic_stringIcSt11char_traitsIcESaIcEED1Ev(ptr noundef nonnull align 8 dereferenceable(32) %19) #3
  br label %99

99:                                               ; preds = %98, %86
  call void @_ZNSaIcED1Ev(ptr noundef nonnull align 1 dereferenceable(1) %20) #3
  call void @_ZNSt7__cxx1112basic_stringIcSt11char_traitsIcESaIcEED1Ev(ptr noundef nonnull align 8 dereferenceable(32) %11) #3
  br label %100

100:                                              ; preds = %99, %82
  call void @_ZNSt7__cxx1112basic_stringIcSt11char_traitsIcESaIcEED1Ev(ptr noundef nonnull align 8 dereferenceable(32) %12) #3
  br label %101

101:                                              ; preds = %100, %78
  call void @_ZNSt7__cxx1112basic_stringIcSt11char_traitsIcESaIcEED1Ev(ptr noundef nonnull align 8 dereferenceable(32) %16) #3
  br label %102

102:                                              ; preds = %101, %74
  call void @_ZNSt7__cxx1112basic_stringIcSt11char_traitsIcESaIcEED1Ev(ptr noundef nonnull align 8 dereferenceable(32) %17) #3
  br label %103

103:                                              ; preds = %102, %70
  call void @_ZNSaIcED1Ev(ptr noundef nonnull align 1 dereferenceable(1) %18) #3
  call void @_ZNSt7__cxx1112basic_stringIcSt11char_traitsIcESaIcEED1Ev(ptr noundef nonnull align 8 dereferenceable(32) %13) #3
  br label %104

104:                                              ; preds = %103, %66
  call void @_ZNSt7__cxx1112basic_stringIcSt11char_traitsIcESaIcEED1Ev(ptr noundef nonnull align 8 dereferenceable(32) %14) #3
  br label %105

105:                                              ; preds = %104, %62
  call void @_ZNSt7__cxx1112basic_stringIcSt11char_traitsIcESaIcEED1Ev(ptr noundef nonnull align 8 dereferenceable(32) %15) #3
  br label %106

106:                                              ; preds = %105, %58
  %107 = load i1, ptr %21, align 1
  br i1 %107, label %108, label %109

108:                                              ; preds = %106
  call void @__cxa_free_exception(ptr %42) #3
  br label %109

109:                                              ; preds = %108, %106
  invoke void @__cxa_end_catch()
          to label %110 unwind label %117

110:                                              ; preds = %109
  br label %112

111:                                              ; preds = %30
  ret void

112:                                              ; preds = %110, %35
  %113 = load ptr, ptr %7, align 8
  %114 = load i32, ptr %8, align 4
  %115 = insertvalue { ptr, i32 } poison, ptr %113, 0
  %116 = insertvalue { ptr, i32 } %115, i32 %114, 1
  resume { ptr, i32 } %116

117:                                              ; preds = %109
  %118 = landingpad { ptr, i32 }
          catch ptr null
  %119 = extractvalue { ptr, i32 } %118, 0
  call void @__clang_call_terminate(ptr %119) #19
  unreachable

120:                                              ; preds = %57
  unreachable
}